(dp1
(Vsave_proxy
S'pending'
tp2
ccopy_reg
_reconstructor
p3
(cpyspider.libs.counter
TimebaseAverageWindowCounter
p4
c__builtin__
object
p5
NtRp6
(dp7
S'_first_data_time'
p8
F1487918820.1286941
sS'window_size'
p9
I600
sS'times'
p10
ccollections
deque
p11
((lp12
F1488275460.1801
aF1488275640.1986051
aF1488275820.187886
aF1488276000.2030489
aF1488276180.2026651
aF1488276360.1911011
aF1488276540.140682
aF1488276720.1532691
aF1488276900.197587
aF1488277080.1498599
aF1488277260.107724
aF1488277440.1310551
aF1488277620.1368389
aF1488277800.14675
aF1488277980.1055231
aF1488278160.1529641
aF1488278340.12849
aF1488278520.188906
aF1488278700.20508
aF1488278880.1821971
aF1488279060.16675
aF1488279240.1313331
aF1488279420.148968
aF1488279600.1454761
aF1488279780.1168849
aF1488279960.159445
aF1488280140.204597
aF1488280320.1451919
aF1488280500.144846
aF1488280680.2686131
aF1488280860.2010241
aF1488281040.169152
aF1488281220.179528
aF1488281400.161715
aF1488281580.1364861
aF1488281760.127995
aF1488281940.176378
aF1488282120.2701449
aF1488282300.196167
aF1488282480.1898439
aF1488282660.1990919
aF1488282840.1538899
aF1488283020.124464
aF1488283200.152143
aF1488283380.1182899
aF1488283560.267592
aF1488283740.1222169
aF1488283920.177793
aF1488284100.1450181
aF1488284280.1784251
aF1488284460.1957469
aF1488284640.1073761
aF1488284820.1251841
aF1488285000.1696601
aF1488285180.1933
aF1488285360.1103439
aF1488285540.1977251
aF1488285720.1489949
aF1488285900.2042301
aF1488286080.122359
aF1488286260.1544399
aF1488286440.1303949
aF1488286620.1868961
aF1488286800.12693
aF1488286980.140583
aF1488287160.2014511
aF1488287340.108315
aF1488287520.17221
aF1488287700.125129
aF1488287880.123358
aF1488288060.1910231
aF1488288240.1416631
aF1488288420.1571381
aF1488288600.184078
aF1488288780.152132
aF1488288960.1516249
aF1488289140.2007761
aF1488289320.1563151
aF1488289500.195471
aF1488289680.175169
aF1488289860.180954
aF1488290040.1767671
aF1488290220.118608
aF1488290400.1821599
aF1488290580.1408789
aF1488290760.106627
aF1488290940.1850309
aF1488291120.165477
aF1488291300.200618
aF1488291480.1963129
aF1488291660.1862581
aF1488291840.184561
aF1488292020.10991
aF1488292200.1919031
aF1488292380.146909
aF1488292560.1573451
aF1488292740.1983919
aF1488292920.1715069
aF1488293100.1412971
aF1488293280.1573901
aF1488293460.166167
aF1488293640.15572
aF1488293820.1059079
aF1488294000.195142
aF1488294180.1612689
aF1488294360.128545
aF1488294540.1929829
aF1488294720.125406
aF1488294900.1487081
aF1488295080.132694
aF1488295260.1139121
aF1488295440.1402781
aF1488295620.163039
aF1488295800.1584041
aF1488295980.1262109
aF1488296160.148062
aF1488296340.1416259
aF1488296520.1444371
aF1488296700.118403
aF1488296880.200855
aF1488297060.2017059
aF1488297240.108633
aF1488297420.195585
aF1488297600.118232
aF1488297780.1120501
aF1488297960.1528749
aF1488298140.207701
aF1488298320.1271839
aF1488298500.119314
aF1488298680.2002089
aF1488298860.1052499
aF1488299040.160145
aF1488299220.149816
aF1488299400.1059799
aF1488299580.186748
aF1488299760.139488
aF1488299940.2007711
aF1488300120.193213
aF1488300300.1099861
aF1488300480.172281
aF1488300660.162575
aF1488300840.1096461
aF1488301020.119493
aF1488301200.1352861
aF1488301380.1955221
aF1488301560.1852391
aF1488301740.1989939
aF1488301920.1673679
aF1488302100.1234391
aF1488302280.118443
aF1488302460.158962
aF1488302640.136322
aF1488302820.204468
aF1488303000.1719711
aF1488303180.141005
aF1488303360.106787
aF1488303540.163238
aF1488303720.1358061
aF1488303900.1556561
aF1488304080.124845
aF1488304260.117497
aF1488304440.144716
aF1488304620.1137619
aF1488304800.1375461
aF1488304980.1264091
aF1488305160.13484
aF1488305340.1065421
aF1488305520.2031109
aF1488305700.1566131
aF1488305880.1818659
aF1488306060.1974521
aF1488306240.246381
aF1488306420.1266561
aF1488306600.1795731
aF1488306780.2018011
aF1488306960.118149
aF1488307140.1552529
aF1488307320.1967599
aF1488307500.1429701
aF1488307680.1513121
aF1488307860.1535101
aF1488308040.1349559
aF1488308220.1267469
aF1488308400.2019479
aF1488308580.1718349
aF1488308760.196938
aF1488308940.1314931
aF1488309120.198468
aF1488309300.173826
aF1488309480.2443719
aF1488309660.1412671
aF1488309840.125319
aF1488310020.1572289
aF1488310200.2021999
aF1488310380.1182001
aF1488310560.1759419
aF1488310740.193476
aF1488310920.131942
aF1488311100.1795671
aF1488311280.1054571
aF1488311460.193522
aF1488311640.1085341
aF1488311820.165797
aF1488312000.1956079
aF1488312180.148762
aF1488312360.2049849
aF1488312540.1693599
aF1488312720.1206529
aF1488312900.1080151
aF1488313080.135314
aF1488313260.2034359
aF1488313440.1935041
aF1488313620.1226931
aF1488313800.1577661
aF1488313980.166435
aF1488314160.168488
aF1488314340.1111109
aF1488314520.122849
aF1488314700.137208
aF1488314880.110045
aF1488315060.1178811
aF1488315240.191648
aF1488315420.1598661
aF1488315600.1575961
aF1488315780.1763971
aF1488315960.172869
aF1488316140.164397
aF1488316320.1693659
aF1488316500.1745729
aF1488316680.142283
aF1488316860.145582
aF1488317040.112947
aF1488317220.1232171
aF1488317400.1642721
aF1488317580.1494851
aF1488317760.164891
aF1488317940.133029
aF1488318120.127002
aF1488318300.1298511
aF1488318480.109489
aF1488318660.186904
aF1488318840.2025471
aF1488319020.175874
aF1488319200.1987159
aF1488319380.144918
aF1488319560.124161
aF1488319740.1266479
aF1488319920.2059791
aF1488320100.117182
aF1488320280.1970551
aF1488320460.1917579
aF1488320640.1069169
aF1488320820.18085
aF1488321000.1912501
aF1488321180.172699
aF1488321360.142339
aF1488321540.1148291
aF1488321720.208704
aF1488321900.182358
aF1488322080.1839719
aF1488322260.1223381
aF1488322440.132134
aF1488322620.232007
aF1488322800.1190801
aF1488322980.108274
aF1488323160.1255629
aF1488323340.1181171
aF1488323520.1870389
aF1488323700.1635029
aF1488323880.2029159
aF1488324060.1794591
aF1488324240.1933341
aF1488324420.1174071
aF1488324600.105881
aF1488324780.1374011
aF1488324960.195519
aF1488325140.1151099
aF1488325320.132266
aF1488325500.123261
aF1488325680.1697299
aF1488325860.1772439
aF1488326040.1829751
aF1488326220.187994
aF1488326400.1221361
aF1488326580.1148441
aF1488326760.146569
aF1488326940.121469
aF1488327120.1622641
aF1488327300.195123
aF1488327480.1188159
aF1488327660.2000201
aF1488327840.158607
aF1488328020.195673
aF1488328200.166631
aF1488328380.1420591
aF1488328560.165791
aF1488328740.184453
aF1488328920.158638
aF1488329100.2064941
aF1488329280.1453421
aF1488329460.1578691
aF1488329640.1906061
aF1488329820.1325729
aF1488330000.1587601
aF1488330180.174145
aF1488330360.224987
aF1488330540.142868
aF1488330720.124341
aF1488330900.1881089
aF1488331080.2049141
aF1488331260.115562
aF1488331440.114578
aF1488331620.181756
aF1488331800.165108
aF1488331980.1933529
aF1488332160.125423
aF1488332340.1347761
aF1488332520.1259379
aF1488332700.1751821
aF1488332880.1889141
aF1488333060.223201
aF1488333240.1630299
aF1488333420.117692
aF1488333600.128201
aF1488333780.1581049
aF1488333960.1661329
aF1488334140.1760421
aF1488334320.1895361
aF1488334500.1872311
aF1488334680.1613951
aF1488334860.174403
aF1488335040.131778
aF1488335220.157505
aF1488335400.4374139
aF1488335580.159394
aF1488335760.161659
aF1488335940.1911671
aF1488336120.163383
aF1488336300.1361229
aF1488336480.1533959
aF1488336660.1240289
aF1488336840.161999
aF1488337020.1730609
aF1488337200.19891
aF1488337380.1718171
aF1488337560.1873081
aF1488337740.158633
aF1488337920.1085651
aF1488338100.171627
aF1488338280.118428
aF1488338460.2017879
aF1488338640.1576221
aF1488338820.1215911
aF1488339000.1603961
aF1488339180.138432
aF1488339360.1717441
aF1488339540.1313429
aF1488339720.1992011
aF1488339900.175884
aF1488340080.2030571
aF1488340260.1064169
aF1488340440.1326301
aF1488340620.155436
aF1488340800.120764
aF1488340980.107697
aF1488341160.116751
aF1488341340.176739
aF1488341520.1127541
aF1488341700.1218221
aF1488341880.1638491
aF1488342060.1478181
aF1488342240.182735
aF1488342420.19332
aF1488342600.1196611
aF1488342780.1853559
aF1488342960.129441
aF1488343140.1470921
aF1488343320.1997459
aF1488343500.1917551
aF1488343680.2013569
aF1488343860.1704521
aF1488344040.116132
aF1488344220.159615
aF1488344400.218642
aF1488344580.1666651
aF1488344760.1590941
aF1488344940.1593821
aF1488345120.170794
aF1488345300.1487269
aF1488345480.1513951
aF1488345660.135684
aF1488345840.1573839
aF1488346020.171309
aF1488346200.2109921
aF1488346380.1379809
aF1488346560.1703629
aF1488346740.136555
aF1488346920.141928
aF1488347100.131681
aF1488347280.1560049
aF1488347460.155509
aF1488347640.2043011
aF1488347820.181109
aF1488348000.187726
aF1488348180.134341
aF1488348360.173775
aF1488348540.165308
aF1488348720.1559889
aF1488348900.17641
aF1488349080.1140029
aF1488349260.204813
aF1488349440.123806
aF1488349620.1429141
aF1488349800.1198361
aF1488349980.1352201
aF1488350160.177624
aF1488350340.148037
aF1488350520.154536
aF1488350700.1281669
aF1488350880.171556
aF1488351060.1109021
aF1488351240.1875279
aF1488351420.1304619
aF1488351600.2450211
aF1488351780.135962
aF1488351960.305603
aF1488352140.1102059
aF1488352320.1154971
aF1488352500.181828
aF1488352680.143352
aF1488352860.149724
aF1488353040.1652601
aF1488353220.1534281
aF1488353400.12621
aF1488353580.165307
aF1488353760.1905489
aF1488353940.187784
aF1488354120.1549981
aF1488354300.1167259
aF1488354480.16835
aF1488354660.1527219
aF1488354840.1495659
aF1488355020.1641381
aF1488355200.189554
aF1488355380.140974
aF1488355560.114887
aF1488355740.125644
aF1488355920.1775639
aF1488356100.1052849
aF1488356280.1292169
aF1488356460.135159
aF1488356640.158097
aF1488356820.203717
aF1488357000.1248419
aF1488357180.1632891
aF1488357360.1382861
aF1488357540.176609
aF1488357720.141536
aF1488357900.18906
aF1488358080.158602
aF1488358260.135782
aF1488358440.1357529
aF1488358620.1220751
aF1488358800.187922
aF1488358980.1252329
aF1488359160.1246121
aF1488359340.1908491
aF1488359520.2007959
aF1488359700.104383
aF1488359880.205941
aF1488360060.199414
aF1488360240.1989551
aF1488360420.1483481
aF1488360600.186516
aF1488360780.111572
aF1488360960.125021
aF1488361140.1151199
aF1488361320.196023
aF1488361500.1622119
aF1488361680.1779101
aF1488361860.1133349
aI600
tRp13
sS'window_interval'
p14
I144
sS'values'
p15
g11
((lp16
I3
aI3
aI3
aI3
aI3
aI3
aI3
aI3
aI3
aI3
aI3
aI3
aI3
aI3
aI3
aI3
aI3
aI3
aI3
aI3
aI3
aI3
aI3
aI3
aI3
aI3
aI3
aI3
aI3
aI3
aI3
aI3
aI3
aI3
aI3
aI3
aI3
aI3
aI3
aI3
aI3
aI3
aI3
aI3
aI3
aI3
aI3
aI3
aI3
aI3
aI3
aI3
aI3
aI3
aI3
aI3
aI3
aI3
aI3
aI3
aI3
aI3
aI3
aI3
aI3
aI3
aI3
aI3
aI3
aI3
aI3
aI3
aI3
aI3
aI3
aI3
aI3
aI3
aI3
aI3
aI3
aI3
aI3
aI3
aI3
aI3
aI3
aI3
aI3
aI3
aI3
aI3
aI3
aI3
aI3
aI3
aI3
aI3
aI3
aI3
aI3
aI3
aI3
aI3
aI3
aI3
aI3
aI3
aI3
aI3
aI3
aI3
aI3
aI3
aI3
aI3
aI3
aI3
aI3
aI3
aI3
aI3
aI3
aI3
aI3
aI3
aI3
aI3
aI3
aI3
aI3
aI3
aI3
aI3
aI3
aI3
aI3
aI3
aI3
aI3
aI3
aI3
aI3
aI3
aI3
aI3
aI3
aI3
aI3
aI3
aI3
aI3
aI3
aI3
aI3
aI3
aI3
aI3
aI3
aI3
aI3
aI3
aI3
aI3
aI3
aI3
aI3
aI3
aI3
aI3
aI3
aI3
aI3
aI3
aI3
aI3
aI3
aI3
aI3
aI3
aI3
aI3
aI3
aI3
aI3
aI3
aI3
aI3
aI3
aI3
aI3
aI3
aI3
aI3
aI3
aI3
aI3
aI3
aI3
aI3
aI3
aI3
aI3
aI3
aI3
aI3
aI3
aI3
aI3
aI3
aI3
aI3
aI3
aI3
aI3
aI3
aI3
aI3
aI3
aI3
aI3
aI3
aI3
aI3
aI3
aI3
aI3
aI3
aI3
aI3
aI3
aI3
aI3
aI3
aI3
aI3
aI3
aI3
aI3
aI3
aI3
aI3
aI3
aI3
aI3
aI3
aI3
aI3
aI3
aI3
aI3
aI3
aI3
aI3
aI3
aI3
aI3
aI3
aI3
aI3
aI3
aI3
aI3
aI3
aI3
aI3
aI3
aI3
aI3
aI3
aI3
aI3
aI3
aI3
aI3
aI3
aI3
aI3
aI3
aI3
aI3
aI3
aI3
aI3
aI3
aI3
aI3
aI3
aI3
aI3
aI3
aI3
aI3
aI3
aI3
aI3
aI3
aI3
aI3
aI3
aI3
aI3
aI3
aI3
aI3
aI3
aI3
aI3
aI3
aI3
aI3
aI3
aI3
aI3
aI3
aI3
aI3
aI3
aI3
aI3
aI3
aI3
aI3
aI3
aI3
aI3
aI3
aI3
aI3
aI3
aI3
aI3
aI3
aI3
aI3
aI3
aI3
aI3
aI3
aI3
aI3
aI3
aI3
aI3
aI3
aI3
aI3
aI3
aI3
aI3
aI3
aI3
aI3
aI3
aI3
aI3
aI3
aI3
aI3
aI3
aI3
aI3
aI3
aI3
aI3
aI3
aI3
aI3
aI3
aI3
aI3
aI3
aI3
aI3
aI3
aI3
aI3
aI3
aI3
aI3
aI3
aI3
aI3
aI3
aI3
aI3
aI3
aI3
aI3
aI3
aI3
aI3
aI3
aI3
aI3
aI3
aI3
aI3
aI3
aI3
aI3
aI3
aI3
aI3
aI3
aI3
aI3
aI3
aI3
aI3
aI3
aI3
aI3
aI3
aI3
aI3
aI3
aI3
aI3
aI3
aI3
aI3
aI3
aI3
aI3
aI3
aI3
aI3
aI3
aI3
aI3
aI3
aI3
aI3
aI3
aI3
aI3
aI3
aI3
aI3
aI3
aI3
aI3
aI3
aI3
aI3
aI3
aI3
aI3
aI3
aI3
aI3
aI3
aI3
aI3
aI3
aI3
aI3
aI3
aI3
aI3
aI3
aI3
aI3
aI3
aI3
aI3
aI3
aI3
aI3
aI3
aI3
aI3
aI3
aI3
aI3
aI3
aI3
aI3
aI3
aI3
aI600
tRp17
sS'cache_value'
p18
I1
sS'max_window_size'
p19
I600
sS'cache_start'
p20
F1488362040.144424
sbs(Vsave_proxy
S'success'
tp21
g3
(g4
g5
NtRp22
(dp23
g8
F1487918820.829355
sg9
I600
sg10
g11
((lp24
F1488275580.441849
aF1488275760.568064
aF1488275940.5974219
aF1488276120.4361329
aF1488276300.5403149
aF1488276480.564631
aF1488276660.5975299
aF1488276840.4670589
aF1488277022.0231371
aF1488277200.598587
aF1488277380.525867
aF1488277560.688004
aF1488277740.5095551
aF1488277920.7727649
aF1488278101.0455339
aF1488278280.49681
aF1488278462.0109849
aF1488278641.1879261
aF1488278820.5614221
aF1488279000.424279
aF1488279180.5124271
aF1488279360.535059
aF1488279540.5919991
aF1488279720.5858841
aF1488279900.5214081
aF1488280080.5425241
aF1488280261.012635
aF1488280440.412339
aF1488280620.430238
aF1488280800.4574299
aF1488280980.4996099
aF1488281160.5200641
aF1488281340.793407
aF1488281520.497226
aF1488281700.5171001
aF1488281880.4632521
aF1488282060.536557
aF1488282240.4149921
aF1488282420.658433
aF1488282600.5086629
aF1488282780.760601
aF1488282960.5162029
aF1488283140.5521641
aF1488283320.6088049
aF1488283500.5367379
aF1488283680.479589
aF1488283860.6628039
aF1488284040.4127181
aF1488284220.5367479
aF1488284400.4504271
aF1488284580.798615
aF1488284760.4914341
aF1488284940.52334
aF1488285120.4634781
aF1488285300.464606
aF1488285481.6917219
aF1488285660.443815
aF1488285840.50664
aF1488286020.531198
aF1488286200.542938
aF1488286380.5031371
aF1488286560.4611709
aF1488286741.334161
aF1488286920.4251289
aF1488287100.585216
aF1488287281.1052129
aF1488287460.5479031
aF1488287640.4129779
aF1488287820.521117
aF1488288000.5217421
aF1488288181.396631
aF1488288360.5325971
aF1488288540.446645
aF1488288720.790158
aF1488288900.508997
aF1488289080.553952
aF1488289261.210798
aF1488289440.5431349
aF1488289620.5036719
aF1488289800.517926
aF1488289980.543334
aF1488290160.5420671
aF1488290340.535162
aF1488290520.492795
aF1488290700.4692121
aF1488290881.3383889
aF1488291060.5965359
aF1488291240.5175259
aF1488291420.553654
aF1488291600.5367229
aF1488291780.910105
aF1488291960.4931459
aF1488292140.530443
aF1488292320.6100249
aF1488292500.580066
aF1488292680.5519409
aF1488292860.5082159
aF1488293041.30586
aF1488293220.582716
aF1488293401.3174369
aF1488293580.5100639
aF1488293761.3039041
aF1488293940.5558
aF1488294120.4227951
aF1488294300.5179031
aF1488294480.572119
aF1488294660.4468501
aF1488294840.5848629
aF1488295022.0802381
aF1488295200.5641971
aF1488295381.5834639
aF1488295561.3021569
aF1488295740.4850791
aF1488295921.2983279
aF1488296100.5772951
aF1488296281.29039
aF1488296460.7989111
aF1488296640.487294
aF1488296820.5396349
aF1488297000.5202179
aF1488297180.4297061
aF1488297360.4505839
aF1488297540.4625261
aF1488297720.447799
aF1488297900.590564
aF1488298080.537241
aF1488298260.463727
aF1488298440.5515349
aF1488298620.7693219
aF1488298800.4267869
aF1488298980.525012
aF1488299161.176492
aF1488299341.471451
aF1488299520.565125
aF1488299700.511781
aF1488299880.541887
aF1488300060.810204
aF1488300240.5501721
aF1488300420.522125
aF1488300600.416152
aF1488300781.489084
aF1488300960.5704751
aF1488301140.4323361
aF1488301320.4269271
aF1488301500.547272
aF1488301680.4528351
aF1488301860.5116251
aF1488302040.46246
aF1488302220.5574801
aF1488302400.53338
aF1488302581.3038981
aF1488302760.3458929
aF1488302940.5163479
aF1488303120.6069939
aF1488303300.7756939
aF1488303480.529197
aF1488303660.9911671
aF1488303841.2076039
aF1488304020.5839739
aF1488304200.60484
aF1488304380.4243939
aF1488304560.586617
aF1488304741.2709999
aF1488304920.5549419
aF1488305100.575284
aF1488305280.7626691
aF1488305460.4448781
aF1488305640.4993701
aF1488305820.6090901
aF1488306002.8440199
aF1488306182.1137469
aF1488306360.492382
aF1488306540.6036439
aF1488306721.243933
aF1488306900.448344
aF1488307080.484158
aF1488307260.606101
aF1488307441.3139441
aF1488307620.4937329
aF1488307800.4686539
aF1488307980.468209
aF1488308161.6927459
aF1488308340.5168719
aF1488308520.5875981
aF1488308700.417707
aF1488308880.7898469
aF1488309060.528805
aF1488309240.938035
aF1488309420.564893
aF1488309600.757977
aF1488309780.5198419
aF1488309960.5936661
aF1488310141.4693069
aF1488310321.297451
aF1488310500.5819421
aF1488310680.4217529
aF1488310860.476357
aF1488311040.5257139
aF1488311220.6796451
aF1488311400.598691
aF1488311580.514859
aF1488311760.4953091
aF1488311940.715466
aF1488312120.5989139
aF1488312300.539516
aF1488312480.519079
aF1488312660.516438
aF1488312840.5643489
aF1488313020.5125959
aF1488313200.7603829
aF1488313380.526952
aF1488313560.5572491
aF1488313740.48979
aF1488313920.5339291
aF1488314100.5142
aF1488314280.675432
aF1488314460.551456
aF1488314640.467967
aF1488314821.1011741
aF1488315000.5627689
aF1488315180.533087
aF1488315360.4096589
aF1488315541.4971769
aF1488315720.41784
aF1488315900.504477
aF1488316080.5306089
aF1488316260.4211719
aF1488316441.204469
aF1488316620.7490489
aF1488316800.461961
aF1488316980.5257151
aF1488317160.52689
aF1488317340.4115491
aF1488317521.2040601
aF1488317700.701961
aF1488317880.5659399
aF1488318060.4509549
aF1488318240.443428
aF1488318420.55036
aF1488318600.539505
aF1488318780.6157839
aF1488318960.515857
aF1488319140.5307851
aF1488319320.565351
aF1488319500.469656
aF1488319680.573875
aF1488319860.523953
aF1488320040.4540441
aF1488320220.5522399
aF1488320400.5143239
aF1488320580.4312961
aF1488320760.5734079
aF1488320940.4263029
aF1488321120.548671
aF1488321302.818326
aF1488321481.9041679
aF1488321660.559103
aF1488321840.4414301
aF1488322020.633328
aF1488322200.6836591
aF1488322380.585938
aF1488322560.7752049
aF1488322741.492444
aF1488322920.508831
aF1488323102.0863249
aF1488323280.5517681
aF1488323460.445699
aF1488323640.6053531
aF1488323821.250401
aF1488324000.503489
aF1488324180.4216039
aF1488324360.6232879
aF1488324540.4634781
aF1488324720.5865791
aF1488324900.5220571
aF1488325080.447824
aF1488325260.6115789
aF1488325440.5446701
aF1488325620.52052
aF1488325800.411413
aF1488325980.538281
aF1488326160.802037
aF1488326340.5526659
aF1488326520.5475521
aF1488326700.6658821
aF1488326880.547565
aF1488327060.502171
aF1488327240.561312
aF1488327420.4456301
aF1488327600.6046
aF1488327780.4925809
aF1488327960.4998839
aF1488328140.5014851
aF1488328320.6643381
aF1488328500.7929831
aF1488328680.543824
aF1488328860.5088
aF1488329040.5354609
aF1488329220.772073
aF1488329400.5986249
aF1488329580.550354
aF1488329760.5725851
aF1488329941.9796939
aF1488330120.6893361
aF1488330300.5555661
aF1488330480.6032431
aF1488330661.257225
aF1488330840.431221
aF1488331021.842206
aF1488331200.4374361
aF1488331380.5628431
aF1488331560.492425
aF1488331740.588311
aF1488331920.478126
aF1488332101.2558451
aF1488332280.570399
aF1488332460.470593
aF1488332640.495755
aF1488332820.4097581
aF1488333001.549273
aF1488333180.6095059
aF1488333362.056484
aF1488333540.5758369
aF1488333720.7909429
aF1488333900.520391
aF1488334080.5890651
aF1488334260.517452
aF1488334440.489567
aF1488334620.5695319
aF1488334800.4415181
aF1488334980.5395551
aF1488335162.391077
aF1488335340.5175011
aF1488335520.4656169
aF1488335700.4709799
aF1488335880.5472071
aF1488336060.5570481
aF1488336240.4405749
aF1488336420.4630671
aF1488336600.766257
aF1488336780.512423
aF1488336960.574574
aF1488337142.004529
aF1488337320.5851631
aF1488337501.3850679
aF1488337680.75125
aF1488337861.5971701
aF1488338040.448194
aF1488338220.4279759
aF1488338400.5826261
aF1488338580.550833
aF1488338760.5608611
aF1488338940.5595231
aF1488339120.513097
aF1488339300.4474139
aF1488339480.59148
aF1488339660.5939331
aF1488339842.7622931
aF1488340021.047116
aF1488340200.4745319
aF1488340380.5819919
aF1488340560.5322411
aF1488340740.60286
aF1488340920.6716731
aF1488341100.48156
aF1488341281.1804011
aF1488341460.4547141
aF1488341640.5901799
aF1488341821.234381
aF1488342000.6103959
aF1488342180.4650409
aF1488342360.580224
aF1488342540.8252161
aF1488342720.5151241
aF1488342900.5936649
aF1488343080.521255
aF1488343260.570215
aF1488343440.5702031
aF1488343620.4644029
aF1488343800.658052
aF1488343980.5738211
aF1488344161.1349771
aF1488344340.438647
aF1488344520.723114
aF1488344700.5288551
aF1488344880.5327971
aF1488345060.540102
aF1488345240.5183661
aF1488345421.2250631
aF1488345600.811693
aF1488345782.932164
aF1488345960.428365
aF1488346140.5675941
aF1488346320.5321751
aF1488346501.1560731
aF1488346680.7281871
aF1488346861.7183599
aF1488347040.500634
aF1488347220.5180459
aF1488347400.503227
aF1488347580.466557
aF1488347760.563076
aF1488347940.420311
aF1488348120.4862831
aF1488348300.7379301
aF1488348480.5385921
aF1488348661.317621
aF1488348840.5490191
aF1488349020.709281
aF1488349200.475158
aF1488349380.4100699
aF1488349560.4237859
aF1488349740.469059
aF1488349920.73596
aF1488350100.567076
aF1488350280.9086499
aF1488350460.573144
aF1488350640.4314041
aF1488350820.677676
aF1488351000.5080471
aF1488351180.8797319
aF1488351360.5079679
aF1488351540.480536
aF1488351720.656755
aF1488351900.536639
aF1488352080.5858109
aF1488352260.4570451
aF1488352440.5690999
aF1488352620.5489841
aF1488352800.5585301
aF1488352980.5605199
aF1488353160.548666
aF1488353340.426692
aF1488353520.533778
aF1488353700.6006839
aF1488353880.482408
aF1488354060.5357611
aF1488354241.087585
aF1488354421.5485661
aF1488354600.5774081
aF1488354781.2513571
aF1488354960.45103
aF1488355140.5619271
aF1488355320.4269919
aF1488355500.6674809
aF1488355681.712579
aF1488355860.52527
aF1488356040.4715979
aF1488356220.4878969
aF1488356401.8069351
aF1488356580.5182891
aF1488356760.5550711
aF1488356940.84129
aF1488357120.530128
aF1488357300.4828179
aF1488357480.655802
aF1488357660.427458
aF1488357840.551791
aF1488358020.834156
aF1488358201.6184101
aF1488358381.935312
aF1488358560.520941
aF1488358740.466857
aF1488358920.5133131
aF1488359100.7274749
aF1488359281.0719979
aF1488359460.66695
aF1488359640.4738679
aF1488359820.4697261
aF1488360000.5773571
aF1488360180.5784669
aF1488360360.435535
aF1488360540.4182429
aF1488360720.4362431
aF1488360900.795681
aF1488361080.5400879
aF1488361261.6048901
aF1488361440.4833751
aF1488361620.475647
aF1488361800.6058569
aI600
tRp25
sg14
I144
sg15
g11
((lp26
I3
aI3
aI3
aI3
aI3
aI3
aI3
aI3
aI3
aI3
aI3
aI3
aI3
aI3
aI3
aI3
aI3
aI3
aI3
aI3
aI3
aI3
aI3
aI3
aI3
aI3
aI3
aI3
aI3
aI3
aI3
aI3
aI3
aI3
aI3
aI3
aI3
aI3
aI3
aI3
aI3
aI3
aI3
aI3
aI3
aI3
aI3
aI3
aI3
aI3
aI3
aI3
aI3
aI3
aI3
aI3
aI3
aI3
aI3
aI3
aI3
aI3
aI3
aI3
aI3
aI3
aI3
aI3
aI3
aI3
aI3
aI3
aI3
aI3
aI3
aI3
aI3
aI3
aI3
aI3
aI3
aI3
aI3
aI3
aI3
aI3
aI3
aI3
aI3
aI3
aI3
aI3
aI3
aI3
aI3
aI3
aI3
aI3
aI3
aI3
aI3
aI3
aI3
aI3
aI3
aI3
aI3
aI3
aI3
aI3
aI3
aI3
aI3
aI3
aI3
aI3
aI3
aI3
aI3
aI3
aI3
aI3
aI3
aI3
aI3
aI3
aI3
aI3
aI3
aI3
aI3
aI3
aI3
aI3
aI3
aI3
aI3
aI3
aI3
aI3
aI3
aI3
aI3
aI3
aI3
aI3
aI3
aI3
aI3
aI3
aI3
aI3
aI3
aI3
aI3
aI3
aI3
aI3
aI3
aI3
aI3
aI3
aI3
aI3
aI3
aI3
aI3
aI3
aI3
aI3
aI3
aI3
aI3
aI3
aI3
aI3
aI3
aI3
aI3
aI3
aI3
aI3
aI3
aI3
aI3
aI3
aI3
aI3
aI3
aI3
aI3
aI3
aI3
aI3
aI3
aI3
aI3
aI3
aI3
aI3
aI3
aI3
aI3
aI3
aI3
aI3
aI3
aI3
aI3
aI3
aI3
aI3
aI3
aI3
aI3
aI3
aI3
aI3
aI3
aI3
aI3
aI3
aI3
aI3
aI3
aI3
aI3
aI3
aI3
aI3
aI3
aI3
aI3
aI3
aI3
aI3
aI3
aI3
aI3
aI3
aI3
aI3
aI3
aI3
aI3
aI3
aI3
aI3
aI3
aI3
aI3
aI3
aI3
aI3
aI3
aI3
aI3
aI3
aI3
aI3
aI3
aI3
aI3
aI3
aI3
aI3
aI3
aI3
aI3
aI3
aI3
aI3
aI3
aI3
aI3
aI3
aI3
aI3
aI3
aI3
aI3
aI3
aI3
aI3
aI3
aI3
aI3
aI3
aI3
aI3
aI3
aI3
aI3
aI3
aI3
aI3
aI3
aI3
aI3
aI3
aI3
aI3
aI3
aI3
aI3
aI3
aI3
aI3
aI3
aI3
aI3
aI3
aI3
aI3
aI3
aI3
aI3
aI3
aI3
aI3
aI3
aI3
aI3
aI3
aI3
aI3
aI3
aI3
aI3
aI3
aI3
aI3
aI3
aI3
aI3
aI3
aI3
aI3
aI3
aI3
aI3
aI3
aI3
aI3
aI3
aI3
aI3
aI3
aI3
aI3
aI3
aI3
aI3
aI3
aI3
aI3
aI3
aI3
aI3
aI3
aI3
aI3
aI3
aI3
aI3
aI3
aI3
aI3
aI3
aI3
aI3
aI3
aI3
aI3
aI3
aI3
aI3
aI3
aI3
aI3
aI3
aI3
aI3
aI3
aI3
aI3
aI3
aI3
aI3
aI3
aI3
aI3
aI3
aI3
aI3
aI3
aI3
aI3
aI3
aI3
aI3
aI3
aI3
aI3
aI3
aI3
aI3
aI3
aI3
aI3
aI3
aI3
aI3
aI3
aI3
aI3
aI3
aI3
aI3
aI3
aI3
aI3
aI3
aI3
aI3
aI3
aI3
aI3
aI3
aI3
aI3
aI3
aI3
aI3
aI3
aI3
aI3
aI3
aI3
aI3
aI3
aI3
aI3
aI3
aI3
aI3
aI3
aI3
aI3
aI3
aI3
aI3
aI3
aI3
aI3
aI3
aI3
aI3
aI3
aI3
aI3
aI3
aI3
aI3
aI3
aI3
aI3
aI3
aI3
aI3
aI3
aI3
aI3
aI3
aI3
aI3
aI3
aI3
aI3
aI3
aI600
tRp27
sg18
I2
sg19
I600
sg20
F1488361980.552434
sbs.