(dp1
(Vsave_proxy
S'pending'
p2
tp3
ccopy_reg
_reconstructor
p4
(cpyspider.libs.counter
TotalCounter
p5
c__builtin__
object
p6
NtRp7
(dp8
S'cnt'
p9
I0
sbs(Vnewscrawler_test
p10
g2
tp11
g4
(g5
g6
NtRp12
(dp13
g9
I0
sbs(g10
S'failed'
p14
tp15
g4
(g5
g6
NtRp16
(dp17
g9
I0
sbs(g10
S'success'
p18
tp19
g4
(g5
g6
NtRp20
(dp21
g9
I0
sbs(Vsave_proxy
p22
g18
tp23
g4
(g5
g6
NtRp24
(dp25
g9
I1
sbs.