(dp1
(Vsave_proxy
S'pending'
tp2
ccopy_reg
_reconstructor
p3
(cpyspider.libs.counter
TimebaseAverageWindowCounter
p4
c__builtin__
object
p5
NtRp6
(dp7
S'_first_data_time'
p8
F1487918820.1286769
sS'window_size'
p9
I60
sS'times'
p10
ccollections
deque
p11
((lp12
F1488358320.1384809
aF1488358440.1357419
aF1488358560.1164861
aF1488358620.1220651
aF1488358680.1506431
aF1488358740.1638851
aF1488358800.1879151
aF1488358920.110707
aF1488358980.1252229
aF1488359100.121007
aF1488359160.124604
aF1488359220.1450839
aF1488359280.1637449
aF1488359340.19084
aF1488359460.161453
aF1488359520.2007861
aF1488359640.1724889
aF1488359760.133985
aF1488359820.166631
aF1488359880.2059331
aF1488360000.175035
aF1488360060.199404
aF1488360180.1729889
aF1488360240.1989479
aF1488360360.1339941
aF1488360420.1483359
aF1488360540.111855
aF1488360600.1864979
aF1488360720.128984
aF1488360840.1142409
aF1488360900.190913
aF1488361020.110455
aF1488361080.1370959
aF1488361200.146455
aF1488361260.1878941
aF1488361320.196017
aF1488361440.1795609
aF1488361560.1743579
aF1488361680.1779001
aF1488361800.203444
aF1488361920.127563
aI60
tRp13
sS'window_interval'
p14
I60
sS'values'
p15
g11
((lp16
I2
aI2
aI1
aI1
aI1
aI1
aI2
aI1
aI2
aI1
aI1
aI1
aI1
aI2
aI1
aI2
aI2
aI1
aI1
aI2
aI1
aI2
aI1
aI2
aI1
aI2
aI1
aI2
aI2
aI1
aI2
aI1
aI2
aI1
aI1
aI2
aI2
aI2
aI2
aI2
aI1
aI60
tRp17
sS'cache_value'
p18
I2
sS'max_window_size'
p19
I60
sS'cache_start'
p20
F1488361980.148715
sbs(Vsave_proxy
p21
S'success'
p22
tp23
g3
(g4
g5
NtRp24
(dp25
g8
F1488267638.3991499
sg9
I60
sg10
g11
((lp26
F1488358201.6184011
aF1488358320.4413669
aF1488358381.935303
aF1488358500.525543
aF1488358620.5257621
aF1488358680.555552
aF1488358801.098012
aF1488358920.513304
aF1488358980.5286701
aF1488359100.7274649
aF1488359220.4493141
aF1488359281.07199
aF1488359400.42904
aF1488359460.66694
aF1488359580.5526841
aF1488359701.721591
aF1488359820.469718
aF1488359881.2144489
aF1488360000.577347
aF1488360120.528842
aF1488360180.5784571
aF1488360241.3060739
aF1488360360.435529
aF1488360420.758497
aF1488360540.418236
aF1488360601.195868
aF1488360720.436218
aF1488360780.7172379
aF1488360900.7956729
aF1488361023.255023
aF1488361140.5278449
aF1488361200.549305
aF1488361261.604883
aF1488361380.492357
aF1488361501.173156
aF1488361620.475636
aF1488361680.4791739
aF1488361740.707129
aF1488361860.5182281
aF1488361920.5301831
aI60
tRp27
sg14
I60
sg15
g11
((lp28
I2
aI1
aI2
aI2
aI1
aI2
aI2
aI1
aI2
aI2
aI1
aI2
aI1
aI2
aI2
aI2
aI1
aI2
aI2
aI1
aI1
aI2
aI1
aI2
aI1
aI2
aI1
aI2
aI2
aI2
aI1
aI1
aI2
aI2
aI2
aI1
aI1
aI2
aI1
aI1
aI60
tRp29
sg18
I2
sg19
I60
sg20
F1488361980.5524249
sbs.